target datalayout = "e-m:e-p270:32:32-p271:32:32-p272:64:64-i64:64-i128:128-f80:128-n8:16:32:64-S128"
target triple = "x86_64-unknown-linux-gnu"

%class.ptr_vector.3 = type { %class.vector.4 }
%class.vector.4 = type { ptr }
%class.ptr_vector.5 = type { %class.vector.6 }
%class.vector.6 = type { ptr }
%"class.grobner::equation" = type { i32, i32, %class.ptr_vector.3, ptr }
%"class.grobner::monomial" = type { %class.rational, %class.ptr_vector.5 }
%class.rational = type { %class.mpq }
%class.mpq = type { %class.mpz, %class.mpz }
%class.mpz = type { i32, i8, ptr }

; Function Attrs: mustprogress nounwind uwtable
define linkonce_odr hidden noundef i32 @_ZNK6vectorIP4exprLb0EjE4sizeEv(ptr noundef nonnull align 8 dereferenceable(8) %this) #5 comdat align 2 {
entry:
  %retval = alloca i32, align 4
  %this.addr = alloca ptr, align 8
  store ptr %this, ptr %this.addr, align 8
  %this1 = load ptr, ptr %this.addr, align 8
  %m_data = getelementptr inbounds %class.vector.6, ptr %this1, i32 0, i32 0
  %0 = load ptr, ptr %m_data, align 8
  %cmp = icmp eq ptr %0, null
  br i1 %cmp, label %if.then, label %if.end

if.then:                                          ; preds = %entry
  store i32 0, ptr %retval, align 4
  br label %return

if.end:                                           ; preds = %entry
  %m_data2 = getelementptr inbounds %class.vector.6, ptr %this1, i32 0, i32 0
  %1 = load ptr, ptr %m_data2, align 8
  %arrayidx = getelementptr inbounds i32, ptr %1, i64 -1
  %2 = load i32, ptr %arrayidx, align 4
  store i32 %2, ptr %retval, align 4
  br label %return

return:                                           ; preds = %if.end, %if.then
  %3 = load i32, ptr %retval, align 4
  ret i32 %3
}

; Function Attrs: mustprogress nounwind uwtable
define linkonce_odr hidden noundef i32 @_ZNK6vectorIPN7grobner8monomialELb0EjE4sizeEv(ptr noundef nonnull align 8 dereferenceable(8) %this) #5 comdat align 2 {
entry:
  %retval = alloca i32, align 4
  %this.addr = alloca ptr, align 8
  store ptr %this, ptr %this.addr, align 8
  %this1 = load ptr, ptr %this.addr, align 8
  %m_data = getelementptr inbounds %class.vector.4, ptr %this1, i32 0, i32 0
  %0 = load ptr, ptr %m_data, align 8
  %cmp = icmp eq ptr %0, null
  br i1 %cmp, label %if.then, label %if.end

if.then:                                          ; preds = %entry
  store i32 0, ptr %retval, align 4
  br label %return

if.end:                                           ; preds = %entry
  %m_data2 = getelementptr inbounds %class.vector.4, ptr %this1, i32 0, i32 0
  %1 = load ptr, ptr %m_data2, align 8
  %arrayidx = getelementptr inbounds i32, ptr %1, i64 -1
  %2 = load i32, ptr %arrayidx, align 4
  store i32 %2, ptr %retval, align 4
  br label %return

return:                                           ; preds = %if.end, %if.then
  %3 = load i32, ptr %retval, align 4
  ret i32 %3
}

; Function Attrs: mustprogress uwtable
define linkonce_odr hidden noundef i32 @_ZNK7grobner8monomial10get_degreeEv(ptr noundef nonnull align 8 dereferenceable(40) %this) #4 comdat align 2 {
entry:
  %this.addr = alloca ptr, align 8
  store ptr %this, ptr %this.addr, align 8
  %this1 = load ptr, ptr %this.addr, align 8
  %m_vars = getelementptr inbounds %"class.grobner::monomial", ptr %this1, i32 0, i32 1
  %call = call noundef i32 @_ZNK6vectorIP4exprLb0EjE4sizeEv(ptr noundef nonnull align 8 dereferenceable(8) %m_vars)
  ret i32 %call
}

; Function Attrs: mustprogress nounwind uwtable
define linkonce_odr hidden noundef nonnull align 8 dereferenceable(8) ptr @_ZN6vectorIPN7grobner8monomialELb0EjEixEj(ptr noundef nonnull align 8 dereferenceable(8) %this, i32 noundef %idx) #5 comdat align 2 {
entry:
  %this.addr = alloca ptr, align 8
  %idx.addr = alloca i32, align 4
  store ptr %this, ptr %this.addr, align 8
  store i32 %idx, ptr %idx.addr, align 4
  %this1 = load ptr, ptr %this.addr, align 8
  %m_data = getelementptr inbounds %class.vector.4, ptr %this1, i32 0, i32 0
  %0 = load ptr, ptr %m_data, align 8
  %1 = load i32, ptr %idx.addr, align 4
  %idxprom = zext i32 %1 to i64
  %arrayidx = getelementptr inbounds ptr, ptr %0, i64 %idxprom
  ret ptr %arrayidx
}

; Function Attrs: mustprogress nounwind uwtable
define linkonce_odr hidden noundef zeroext i1 @_ZNK6vectorIPN7grobner8monomialELb0EjE5emptyEv(ptr noundef nonnull align 8 dereferenceable(8) %this) #5 comdat align 2 {
entry:
  %this.addr = alloca ptr, align 8
  store ptr %this, ptr %this.addr, align 8
  %this1 = load ptr, ptr %this.addr, align 8
  %m_data = getelementptr inbounds %class.vector.4, ptr %this1, i32 0, i32 0
  %0 = load ptr, ptr %m_data, align 8
  %cmp = icmp eq ptr %0, null
  br i1 %cmp, label %lor.end, label %lor.rhs

lor.rhs:                                          ; preds = %entry
  %m_data2 = getelementptr inbounds %class.vector.4, ptr %this1, i32 0, i32 0
  %1 = load ptr, ptr %m_data2, align 8
  %arrayidx = getelementptr inbounds i32, ptr %1, i64 -1
  %2 = load i32, ptr %arrayidx, align 4
  %cmp3 = icmp eq i32 %2, 0
  br label %lor.end

lor.end:                                          ; preds = %lor.rhs, %entry
  %3 = phi i1 [ true, %entry ], [ %cmp3, %lor.rhs ]
  ret i1 %3
}

; Function Attrs: mustprogress uwtable
define hidden noundef zeroext i1 @_ZN7grobner16is_better_choiceEPNS_8equationES1_(ptr noundef nonnull align 8 dereferenceable(228) %this, ptr noundef %eq1, ptr noundef %eq2) #4 align 2 {
entry:
  %retval = alloca i1, align 1
  %this.addr = alloca ptr, align 8
  %eq1.addr = alloca ptr, align 8
  %eq2.addr = alloca ptr, align 8
  store ptr %this, ptr %this.addr, align 8
  store ptr %eq1, ptr %eq1.addr, align 8
  store ptr %eq2, ptr %eq2.addr, align 8
  %0 = load ptr, ptr %eq2.addr, align 8
  %tobool = icmp ne ptr %0, null
  br i1 %tobool, label %if.end, label %if.then

if.then:                                          ; preds = %entry
  store i1 true, ptr %retval, align 1
  br label %return

if.end:                                           ; preds = %entry
  %1 = load ptr, ptr %eq1.addr, align 8
  %m_monomials = getelementptr inbounds %"class.grobner::equation", ptr %1, i32 0, i32 2
  %call = call noundef zeroext i1 @_ZNK6vectorIPN7grobner8monomialELb0EjE5emptyEv(ptr noundef nonnull align 8 dereferenceable(8) %m_monomials)
  br i1 %call, label %if.then2, label %if.end3

if.then2:                                         ; preds = %if.end
  store i1 true, ptr %retval, align 1
  br label %return

if.end3:                                          ; preds = %if.end
  %2 = load ptr, ptr %eq2.addr, align 8
  %m_monomials4 = getelementptr inbounds %"class.grobner::equation", ptr %2, i32 0, i32 2
  %call5 = call noundef zeroext i1 @_ZNK6vectorIPN7grobner8monomialELb0EjE5emptyEv(ptr noundef nonnull align 8 dereferenceable(8) %m_monomials4)
  br i1 %call5, label %if.then6, label %if.end7

if.then6:                                         ; preds = %if.end3
  store i1 false, ptr %retval, align 1
  br label %return

if.end7:                                          ; preds = %if.end3
  %3 = load ptr, ptr %eq1.addr, align 8
  %m_monomials8 = getelementptr inbounds %"class.grobner::equation", ptr %3, i32 0, i32 2
  %call9 = call noundef nonnull align 8 dereferenceable(8) ptr @_ZN6vectorIPN7grobner8monomialELb0EjEixEj(ptr noundef nonnull align 8 dereferenceable(8) %m_monomials8, i32 noundef 0)
  %4 = load ptr, ptr %call9, align 8
  %call10 = call noundef i32 @_ZNK7grobner8monomial10get_degreeEv(ptr noundef nonnull align 8 dereferenceable(40) %4)
  %5 = load ptr, ptr %eq2.addr, align 8
  %m_monomials11 = getelementptr inbounds %"class.grobner::equation", ptr %5, i32 0, i32 2
  %call12 = call noundef nonnull align 8 dereferenceable(8) ptr @_ZN6vectorIPN7grobner8monomialELb0EjEixEj(ptr noundef nonnull align 8 dereferenceable(8) %m_monomials11, i32 noundef 0)
  %6 = load ptr, ptr %call12, align 8
  %call13 = call noundef i32 @_ZNK7grobner8monomial10get_degreeEv(ptr noundef nonnull align 8 dereferenceable(40) %6)
  %cmp = icmp ult i32 %call10, %call13
  br i1 %cmp, label %if.then14, label %if.end15

if.then14:                                        ; preds = %if.end7
  store i1 true, ptr %retval, align 1
  br label %return

if.end15:                                         ; preds = %if.end7
  %7 = load ptr, ptr %eq1.addr, align 8
  %m_monomials16 = getelementptr inbounds %"class.grobner::equation", ptr %7, i32 0, i32 2
  %call17 = call noundef nonnull align 8 dereferenceable(8) ptr @_ZN6vectorIPN7grobner8monomialELb0EjEixEj(ptr noundef nonnull align 8 dereferenceable(8) %m_monomials16, i32 noundef 0)
  %8 = load ptr, ptr %call17, align 8
  %call18 = call noundef i32 @_ZNK7grobner8monomial10get_degreeEv(ptr noundef nonnull align 8 dereferenceable(40) %8)
  %9 = load ptr, ptr %eq2.addr, align 8
  %m_monomials19 = getelementptr inbounds %"class.grobner::equation", ptr %9, i32 0, i32 2
  %call20 = call noundef nonnull align 8 dereferenceable(8) ptr @_ZN6vectorIPN7grobner8monomialELb0EjEixEj(ptr noundef nonnull align 8 dereferenceable(8) %m_monomials19, i32 noundef 0)
  %10 = load ptr, ptr %call20, align 8
  %call21 = call noundef i32 @_ZNK7grobner8monomial10get_degreeEv(ptr noundef nonnull align 8 dereferenceable(40) %10)
  %cmp22 = icmp ugt i32 %call18, %call21
  br i1 %cmp22, label %if.then23, label %if.end24

if.then23:                                        ; preds = %if.end15
  store i1 false, ptr %retval, align 1
  br label %return

if.end24:                                         ; preds = %if.end15
  %11 = load ptr, ptr %eq1.addr, align 8
  %m_monomials25 = getelementptr inbounds %"class.grobner::equation", ptr %11, i32 0, i32 2
  %call26 = call noundef i32 @_ZNK6vectorIPN7grobner8monomialELb0EjE4sizeEv(ptr noundef nonnull align 8 dereferenceable(8) %m_monomials25)
  %12 = load ptr, ptr %eq2.addr, align 8
  %m_monomials27 = getelementptr inbounds %"class.grobner::equation", ptr %12, i32 0, i32 2
  %call28 = call noundef i32 @_ZNK6vectorIPN7grobner8monomialELb0EjE4sizeEv(ptr noundef nonnull align 8 dereferenceable(8) %m_monomials27)
  %cmp29 = icmp ult i32 %call26, %call28
  store i1 %cmp29, ptr %retval, align 1
  br label %return

return:                                           ; preds = %if.end24, %if.then23, %if.then14, %if.then6, %if.then2, %if.then
  %13 = load i1, ptr %retval, align 1
  ret i1 %13
}