; Function Attrs: mustprogress nofree norecurse nosync nounwind willreturn memory(read, inaccessiblemem: none) uwtable
define hidden noundef zeroext i1 @_ZN7grobner16is_better_choiceEPNS_8equationES1_(ptr nocapture noundef nonnull readnone align 8 dereferenceable(228) %this, ptr nocapture noundef readonly %eq1, ptr noundef readonly %eq2) local_unnamed_addr #8 align 2 {
entry:
  %tobool.not = icmp eq ptr %eq2, null
  br i1 %tobool.not, label %return, label %if.end

if.end:                                           ; preds = %entry
  %m_monomials = getelementptr inbounds i8, ptr %eq1, i64 8
  %0 = load ptr, ptr %m_monomials, align 8
  %cmp.i = icmp eq ptr %0, null
  br i1 %cmp.i, label %return, label %_ZNK6vectorIPN7grobner8monomialELb0EjE5emptyEv.exit

_ZNK6vectorIPN7grobner8monomialELb0EjE5emptyEv.exit: ; preds = %if.end
  %arrayidx.i = getelementptr inbounds i8, ptr %0, i64 -4
  %1 = load i32, ptr %arrayidx.i, align 4
  %cmp3.i = icmp eq i32 %1, 0
  br i1 %cmp3.i, label %return, label %if.end3

if.end3:                                          ; preds = %_ZNK6vectorIPN7grobner8monomialELb0EjE5emptyEv.exit
  %m_monomials4 = getelementptr inbounds i8, ptr %eq2, i64 8
  %2 = load ptr, ptr %m_monomials4, align 8
  %cmp.i8 = icmp eq ptr %2, null
  br i1 %cmp.i8, label %return, label %_ZNK6vectorIPN7grobner8monomialELb0EjE5emptyEv.exit12

_ZNK6vectorIPN7grobner8monomialELb0EjE5emptyEv.exit12: ; preds = %if.end3
  %arrayidx.i10 = getelementptr inbounds i8, ptr %2, i64 -4
  %3 = load i32, ptr %arrayidx.i10, align 4
  %cmp3.i11 = icmp eq i32 %3, 0
  br i1 %cmp3.i11, label %return, label %if.end7

if.end7:                                          ; preds = %_ZNK6vectorIPN7grobner8monomialELb0EjE5emptyEv.exit12
  %4 = load ptr, ptr %0, align 8
  %m_vars.i = getelementptr inbounds i8, ptr %4, i64 32
  %5 = load ptr, ptr %m_vars.i, align 8
  %cmp.i.i = icmp eq ptr %5, null
  br i1 %cmp.i.i, label %_ZNK7grobner8monomial10get_degreeEv.exit, label %if.end.i.i

if.end.i.i:                                       ; preds = %if.end7
  %arrayidx.i.i = getelementptr inbounds i8, ptr %5, i64 -4
  %6 = load i32, ptr %arrayidx.i.i, align 4
  br label %_ZNK7grobner8monomial10get_degreeEv.exit

_ZNK7grobner8monomial10get_degreeEv.exit:         ; preds = %if.end7, %if.end.i.i
  %retval.0.i.i = phi i32 [ %6, %if.end.i.i ], [ 0, %if.end7 ]
  %7 = load ptr, ptr %2, align 8
  %m_vars.i13 = getelementptr inbounds i8, ptr %7, i64 32
  %8 = load ptr, ptr %m_vars.i13, align 8
  %cmp.i.i14 = icmp eq ptr %8, null
  br i1 %cmp.i.i14, label %_ZNK7grobner8monomial10get_degreeEv.exit18, label %if.end.i.i15

if.end.i.i15:                                     ; preds = %_ZNK7grobner8monomial10get_degreeEv.exit
  %arrayidx.i.i16 = getelementptr inbounds i8, ptr %8, i64 -4
  %9 = load i32, ptr %arrayidx.i.i16, align 4
  br label %_ZNK7grobner8monomial10get_degreeEv.exit18

_ZNK7grobner8monomial10get_degreeEv.exit18:       ; preds = %_ZNK7grobner8monomial10get_degreeEv.exit, %if.end.i.i15
  %retval.0.i.i17 = phi i32 [ %9, %if.end.i.i15 ], [ 0, %_ZNK7grobner8monomial10get_degreeEv.exit ]
  %cmp = icmp ult i32 %retval.0.i.i, %retval.0.i.i17
  br i1 %cmp, label %return, label %if.end15

if.end15:                                         ; preds = %_ZNK7grobner8monomial10get_degreeEv.exit18
  br i1 %cmp.i.i, label %_ZNK7grobner8monomial10get_degreeEv.exit24, label %if.end.i.i21

if.end.i.i21:                                     ; preds = %if.end15
  %arrayidx.i.i22 = getelementptr inbounds i8, ptr %5, i64 -4
  %10 = load i32, ptr %arrayidx.i.i22, align 4
  br label %_ZNK7grobner8monomial10get_degreeEv.exit24

_ZNK7grobner8monomial10get_degreeEv.exit24:       ; preds = %if.end15, %if.end.i.i21
  %retval.0.i.i23 = phi i32 [ %10, %if.end.i.i21 ], [ 0, %if.end15 ]
  br i1 %cmp.i.i14, label %_ZNK7grobner8monomial10get_degreeEv.exit30, label %if.end.i.i27

if.end.i.i27:                                     ; preds = %_ZNK7grobner8monomial10get_degreeEv.exit24
  %arrayidx.i.i28 = getelementptr inbounds i8, ptr %8, i64 -4
  %11 = load i32, ptr %arrayidx.i.i28, align 4
  br label %_ZNK7grobner8monomial10get_degreeEv.exit30

_ZNK7grobner8monomial10get_degreeEv.exit30:       ; preds = %_ZNK7grobner8monomial10get_degreeEv.exit24, %if.end.i.i27
  %retval.0.i.i29 = phi i32 [ %11, %if.end.i.i27 ], [ 0, %_ZNK7grobner8monomial10get_degreeEv.exit24 ]
  %cmp22 = icmp ule i32 %retval.0.i.i23, %retval.0.i.i29
  %cmp29 = icmp ult i32 %1, %3
  %spec.select = and i1 %cmp22, %cmp29
  br label %return

return:                                           ; preds = %_ZNK7grobner8monomial10get_degreeEv.exit30, %if.end3, %if.end, %_ZNK7grobner8monomial10get_degreeEv.exit18, %_ZNK6vectorIPN7grobner8monomialELb0EjE5emptyEv.exit12, %_ZNK6vectorIPN7grobner8monomialELb0EjE5emptyEv.exit, %entry
  %retval.0 = phi i1 [ true, %entry ], [ true, %_ZNK6vectorIPN7grobner8monomialELb0EjE5emptyEv.exit ], [ false, %_ZNK6vectorIPN7grobner8monomialELb0EjE5emptyEv.exit12 ], [ true, %_ZNK7grobner8monomial10get_degreeEv.exit18 ], [ true, %if.end ], [ false, %if.end3 ], [ %spec.select, %_ZNK7grobner8monomial10get_degreeEv.exit30 ]
  ret i1 %retval.0
}